(dp0
S'METTS MARK'
p1
(dp2
S'salary'
p3
I365788
sS'to_messages'
p4
I807
sS'deferral_payments'
p5
S'NaN'
p6
sS'total_payments'
p7
I1061827
sS'exercised_stock_options'
p8
g6
sS'bonus'
p9
I600000
sS'restricted_stock'
p10
I585062
sS'shared_receipt_with_poi'
p11
I702
sS'restricted_stock_deferred'
p12
g6
sS'total_stock_value'
p13
I585062
sS'expenses'
p14
I94299
sS'loan_advances'
p15
g6
sS'from_messages'
p16
I29
sS'other'
p17
I1740
sS'from_this_person_to_poi'
p18
I1
sS'poi'
p19
I00
sS'director_fees'
p20
g6
sS'deferred_income'
p21
g6
sS'long_term_incentive'
p22
g6
sS'email_address'
p23
S'mark.metts@enron.com'
p24
sS'from_poi_to_this_person'
p25
I38
ssS'SHERRIFF JOHN R'
p26
(dp27
g3
I428780
sg4
I3187
sg5
g6
sg7
I4335388
sg8
I1835558
sg9
I1500000
sg10
I1293424
sg11
I2103
sg12
g6
sg13
I3128982
sg14
g6
sg15
g6
sg16
I92
sg17
I1852186
sg18
I23
sg19
I00
sg20
g6
sg21
g6
sg22
I554422
sg23
S'john.sherriff@enron.com'
p28
sg25
I28
ssS'BOWEN JR RAYMOND M'
p29
(dp30
g3
I278601
sg4
I1858
sg5
g6
sg7
I2669589
sg8
g6
sg9
I1350000
sg10
I252055
sg11
I1593
sg12
g6
sg13
I252055
sg14
I65907
sg15
g6
sg16
I27
sg17
I1621
sg18
I15
sg19
I01
sg20
g6
sg21
I-833
sg22
I974293
sg23
S'raymond.bowen@enron.com'
p31
sg25
I140
ssS'HANNON KEVIN P'
p32
(dp33
g3
I243293
sg4
I1045
sg5
g6
sg7
I288682
sg8
I5538001
sg9
I1500000
sg10
I853064
sg11
I1035
sg12
g6
sg13
I6391065
sg14
I34039
sg15
g6
sg16
I32
sg17
I11350
sg18
I21
sg19
I01
sg20
g6
sg21
I-3117011
sg22
I1617011
sg23
S'kevin.hannon@enron.com'
p34
sg25
I32
ssS'RICE KENNETH D'
p35
(dp36
g3
I420636
sg4
I905
sg5
g6
sg7
I505050
sg8
I19794175
sg9
I1750000
sg10
I2748364
sg11
I864
sg12
g6
sg13
I22542539
sg14
I46950
sg15
g6
sg16
I18
sg17
I174839
sg18
I4
sg19
I01
sg20
g6
sg21
I-3504386
sg22
I1617011
sg23
S'ken.rice@enron.com'
p37
sg25
I42
ssS'CAUSEY RICHARD A'
p38
(dp39
g3
I415189
sg4
I1892
sg5
g6
sg7
I1868758
sg8
g6
sg9
I1000000
sg10
I2502063
sg11
I1585
sg12
g6
sg13
I2502063
sg14
I30674
sg15
g6
sg16
I49
sg17
I307895
sg18
I12
sg19
I01
sg20
g6
sg21
I-235000
sg22
I350000
sg23
S'richard.causey@enron.com'
p40
sg25
I58
ssS'FITZGERALD JAY L'
p41
(dp42
g3
I199157
sg4
I936
sg5
g6
sg7
I1414857
sg8
I664461
sg9
I350000
sg10
I956775
sg11
I723
sg12
g6
sg13
I1621236
sg14
I23870
sg15
g6
sg16
I16
sg17
I285414
sg18
I8
sg19
I00
sg20
g6
sg21
g6
sg22
I556416
sg23
S'jay.fitzgerald@enron.com'
p43
sg25
I1
ssS'BUCHANAN HAROLD G'
p44
(dp45
g3
I248017
sg4
I1088
sg5
g6
sg7
I1054637
sg8
I825464
sg9
I500000
sg10
I189041
sg11
I23
sg12
g6
sg13
I1014505
sg14
I600
sg15
g6
sg16
I125
sg17
I1215
sg18
I0
sg19
I00
sg20
g6
sg21
g6
sg22
I304805
sg23
S'john.buchanan@enron.com'
p46
sg25
I0
ssS'MCMAHON JEFFREY'
p47
(dp48
g3
I370448
sg4
I2355
sg5
g6
sg7
I4099771
sg8
I1104054
sg9
I2600000
sg10
I558801
sg11
I2228
sg12
g6
sg13
I1662855
sg14
I137108
sg15
g6
sg16
I48
sg17
I297353
sg18
I26
sg19
I00
sg20
g6
sg21
g6
sg22
I694862
sg23
S'jeffrey.mcmahon@enron.com'
p49
sg25
I58
ssS'REDMOND BRIAN L'
p50
(dp51
g3
I96840
sg4
I1671
sg5
g6
sg7
I111529
sg8
I7509039
sg9
g6
sg10
I381285
sg11
I1063
sg12
g6
sg13
I7890324
sg14
I14689
sg15
g6
sg16
I221
sg17
g6
sg18
I49
sg19
I00
sg20
g6
sg21
g6
sg22
g6
sg23
S'brian.redmond@enron.com'
p52
sg25
I204
ssS'LAVORATO JOHN J'
p53
(dp54
g3
I339288
sg4
I7259
sg5
g6
sg7
I10425757
sg8
I4158995
sg9
I8000000
sg10
I1008149
sg11
I3962
sg12
g6
sg13
I5167144
sg14
I49537
sg15
g6
sg16
I2585
sg17
I1552
sg18
I411
sg19
I00
sg20
g6
sg21
g6
sg22
I2035380
sg23
S'john.lavorato@enron.com'
p55
sg25
I528
ssS'HAEDICKE MARK E'
p56
(dp57
g3
I374125
sg4
I4009
sg5
I2157527
sg7
I3859065
sg8
I608750
sg9
I1150000
sg10
I524169
sg11
I1847
sg12
I-329825
sg13
I803094
sg14
I76169
sg15
g6
sg16
I1941
sg17
I52382
sg18
I61
sg19
I00
sg20
g6
sg21
I-934484
sg22
I983346
sg23
S'mark.haedicke@enron.com'
p58
sg25
I180
ssS'DURAN WILLIAM D'
p59
(dp60
g3
I210692
sg4
I904
sg5
g6
sg7
I2093263
sg8
I1451869
sg9
I750000
sg10
I189041
sg11
I599
sg12
g6
sg13
I1640910
sg14
I25785
sg15
g6
sg16
I12
sg17
I1568
sg18
I3
sg19
I00
sg20
g6
sg21
g6
sg22
I1105218
sg23
S'w.duran@enron.com'
p61
sg25
I106
ssS'DIETRICH JANET R'
p62
(dp63
g3
I250100
sg4
I2572
sg5
g6
sg7
I1410464
sg8
I1550019
sg9
I600000
sg10
I315068
sg11
I1902
sg12
g6
sg13
I1865087
sg14
I3475
sg15
g6
sg16
I63
sg17
I473
sg18
I14
sg19
I00
sg20
g6
sg21
g6
sg22
I556416
sg23
S'janet.dietrich@enron.com'
p64
sg25
I305
ssS'PIPER GREGORY F'
p65
(dp66
g3
I197091
sg4
I1238
sg5
I1130036
sg7
I1737629
sg8
I880290
sg9
I400000
sg10
I409554
sg11
I742
sg12
I-409554
sg13
I880290
sg14
I43057
sg15
g6
sg16
I222
sg17
I778
sg18
I48
sg19
I00
sg20
g6
sg21
I-33333
sg22
g6
sg23
S'greg.piper@enron.com'
p67
sg25
I61
ssS'HUMPHREY GENE E'
p68
(dp69
g3
I130724
sg4
I128
sg5
I2964506
sg7
I3100224
sg8
I2282768
sg9
g6
sg10
g6
sg11
I119
sg12
g6
sg13
I2282768
sg14
I4994
sg15
g6
sg16
I17
sg17
g6
sg18
I17
sg19
I00
sg20
g6
sg21
g6
sg22
g6
sg23
S'gene.humphrey@enron.com'
p70
sg25
I10
ssS'DERRICK JR. JAMES V'
p71
(dp72
g3
I492375
sg4
I2181
sg5
g6
sg7
I550981
sg8
I8831913
sg9
I800000
sg10
I1787380
sg11
I1401
sg12
I-1787380
sg13
I8831913
sg14
I51124
sg15
g6
sg16
I909
sg17
I7482
sg18
I20
sg19
I00
sg20
g6
sg21
I-1284000
sg22
I484000
sg23
S'james.derrick@enron.com'
p73
sg25
I64
ssS'THORN TERENCE H'
p74
(dp75
g3
I222093
sg4
I266
sg5
I16586
sg7
I911453
sg8
I4452476
sg9
g6
sg10
I365320
sg11
I73
sg12
g6
sg13
I4817796
sg14
I46145
sg15
g6
sg16
I41
sg17
I426629
sg18
I0
sg19
I00
sg20
g6
sg21
g6
sg22
I200000
sg23
S'terence.thorn@enron.com'
p76
sg25
I0
ssS'MURRAY JULIA H'
p77
(dp78
g3
I229284
sg4
I2192
sg5
g6
sg7
I812194
sg8
I400478
sg9
I400000
sg10
I196983
sg11
I395
sg12
g6
sg13
I597461
sg14
I57580
sg15
g6
sg16
I45
sg17
I330
sg18
I2
sg19
I00
sg20
g6
sg21
g6
sg22
I125000
sg23
S'julia.murray@enron.com'
p79
sg25
I11
ssS'GARLAND C KEVIN'
p80
(dp81
g3
I231946
sg4
I209
sg5
g6
sg7
I1566469
sg8
I636246
sg9
I850000
sg10
I259907
sg11
I178
sg12
g6
sg13
I896153
sg14
I48405
sg15
g6
sg16
I44
sg17
I60814
sg18
I27
sg19
I00
sg20
g6
sg21
g6
sg22
I375304
sg23
S'kevin.garland@enron.com'
p82
sg25
I10
ssS'BANNANTINE JAMES M'
p83
(dp84
g3
I477
sg4
I566
sg5
g6
sg7
I916197
sg8
I4046157
sg9
g6
sg10
I1757552
sg11
I465
sg12
I-560222
sg13
I5243487
sg14
I56301
sg15
g6
sg16
I29
sg17
I864523
sg18
I0
sg19
I00
sg20
g6
sg21
I-5104
sg22
g6
sg23
S'james.bannantine@enron.com'
p85
sg25
I39
ssS'BLACHMAN JEREMY M'
p86
(dp87
g3
I248546
sg4
I2475
sg5
g6
sg7
I2014835
sg8
I765313
sg9
I850000
sg10
I189041
sg11
I2326
sg12
g6
sg13
I954354
sg14
I84208
sg15
g6
sg16
I14
sg17
I272
sg18
I2
sg19
I00
sg20
g6
sg21
g6
sg22
I831809
sg23
S'jeremy.blachman@enron.com'
p88
sg25
I25
ssS'DODSON KEITH'
p89
(dp90
g3
I221003
sg4
I176
sg5
g6
sg7
I319941
sg8
g6
sg9
I70000
sg10
g6
sg11
I114
sg12
g6
sg13
g6
sg14
I28164
sg15
g6
sg16
I14
sg17
I774
sg18
I3
sg19
I00
sg20
g6
sg21
g6
sg22
g6
sg23
S'keith.dodson@enron.com'
p91
sg25
I10
ssS'SUNDE MARTIN'
p92
(dp93
g3
I257486
sg4
I2647
sg5
g6
sg7
I1545059
sg8
g6
sg9
I700000
sg10
I698920
sg11
I2565
sg12
g6
sg13
I698920
sg14
g6
sg15
g6
sg16
I38
sg17
I111122
sg18
I13
sg19
I00
sg20
g6
sg21
g6
sg22
I476451
sg23
S'marty.sunde@enron.com'
p94
sg25
I37
ssS'SHAPIRO RICHARD S'
p95
(dp96
g3
I269076
sg4
I15149
sg5
g6
sg7
I1057548
sg8
I607837
sg9
I650000
sg10
I379164
sg11
I4527
sg12
g6
sg13
I987001
sg14
I137767
sg15
g6
sg16
I1215
sg17
I705
sg18
I65
sg19
I00
sg20
g6
sg21
g6
sg22
g6
sg23
S'richard.shapiro@enron.com'
p97
sg25
I74
ssS'COLWELL WESLEY'
p98
(dp99
g3
I288542
sg4
I1758
sg5
I27610
sg7
I1490344
sg8
g6
sg9
I1200000
sg10
I698242
sg11
I1132
sg12
g6
sg13
I698242
sg14
I16514
sg15
g6
sg16
I40
sg17
I101740
sg18
I11
sg19
I01
sg20
g6
sg21
I-144062
sg22
g6
sg23
S'wes.colwell@enron.com'
p100
sg25
I240
ssS'MULLER MARK S'
p101
(dp102
g3
I251654
sg4
I136
sg5
I842924
sg7
I3202070
sg8
I1056320
sg9
I1100000
sg10
I360528
sg11
I114
sg12
g6
sg13
I1416848
sg14
g6
sg15
g6
sg16
I16
sg17
I947
sg18
I0
sg19
I00
sg20
g6
sg21
I-719000
sg22
I1725545
sg23
S's..muller@enron.com'
p103
sg25
I12
ssS'SHELBY REX'
p104
(dp105
g3
I211844
sg4
I225
sg5
g6
sg7
I2003885
sg8
I1624396
sg9
I200000
sg10
I869220
sg11
I91
sg12
g6
sg13
I2493616
sg14
I22884
sg15
g6
sg16
I39
sg17
I1573324
sg18
I14
sg19
I01
sg20
g6
sg21
I-4167
sg22
g6
sg23
S'rex.shelby@enron.com'
p106
sg25
I13
ssS'JACKSON CHARLENE R'
p107
(dp108
g3
I288558
sg4
I258
sg5
g6
sg7
I551174
sg8
I185063
sg9
I250000
sg10
I540672
sg11
I117
sg12
g6
sg13
I725735
sg14
I10181
sg15
g6
sg16
I56
sg17
I2435
sg18
I19
sg19
I00
sg20
g6
sg21
g6
sg22
g6
sg23
S'charlene.jackson@enron.com'
p109
sg25
I25
ssS'FREVERT MARK A'
p110
(dp111
g3
I1060932
sg4
I3275
sg5
I6426990
sg7
I17252530
sg8
I10433518
sg9
I2000000
sg10
I4188667
sg11
I2979
sg12
g6
sg13
I14622185
sg14
I86987
sg15
I2000000
sg16
I21
sg17
I7427621
sg18
I6
sg19
I00
sg20
g6
sg21
I-3367011
sg22
I1617011
sg23
S'mark.frevert@enron.com'
p112
sg25
I242
ssS'DEFFNER JOSEPH M'
p113
(dp114
g3
I206121
sg4
I714
sg5
g6
sg7
I1208649
sg8
I17378
sg9
I600000
sg10
I141833
sg11
I552
sg12
g6
sg13
I159211
sg14
I41626
sg15
g6
sg16
I74
sg17
I25553
sg18
I4
sg19
I00
sg20
g6
sg21
g6
sg22
I335349
sg23
S'joseph.deffner@enron.com'
p115
sg25
I115
ssS'KAMINSKI WINCENTY J'
p116
(dp117
g3
I275101
sg4
I4607
sg5
g6
sg7
I1086821
sg8
I850010
sg9
I400000
sg10
I126027
sg11
I583
sg12
g6
sg13
I976037
sg14
I83585
sg15
g6
sg16
I14368
sg17
I4669
sg18
I171
sg19
I00
sg20
g6
sg21
g6
sg22
I323466
sg23
S'vince.kaminski@enron.com'
p118
sg25
I41
ssS'WALLS JR ROBERT H'
p119
(dp120
g3
I357091
sg4
I671
sg5
g6
sg7
I1798780
sg8
I4346544
sg9
I850000
sg10
I1552453
sg11
I215
sg12
g6
sg13
I5898997
sg14
I50936
sg15
g6
sg16
I146
sg17
I2
sg18
I0
sg19
I00
sg20
g6
sg21
g6
sg22
I540751
sg23
S'rob.walls@enron.com'
p121
sg25
I17
ssS'KITCHEN LOUISE'
p122
(dp123
g3
I271442
sg4
I8305
sg5
g6
sg7
I3471141
sg8
I81042
sg9
I3100000
sg10
I466101
sg11
I3669
sg12
g6
sg13
I547143
sg14
I5774
sg15
g6
sg16
I1728
sg17
I93925
sg18
I194
sg19
I00
sg20
g6
sg21
g6
sg22
g6
sg23
S'louise.kitchen@enron.com'
p124
sg25
I251
ssS'CALGER CHRISTOPHER F'
p125
(dp126
g3
I240189
sg4
I2598
sg5
g6
sg7
I1639297
sg8
g6
sg9
I1250000
sg10
I126027
sg11
I2188
sg12
g6
sg13
I126027
sg14
I35818
sg15
g6
sg16
I144
sg17
I486
sg18
I25
sg19
I01
sg20
g6
sg21
I-262500
sg22
I375304
sg23
S'christopher.calger@enron.com'
p127
sg25
I199
ssS'COX DAVID'
p128
(dp129
g3
I314288
sg4
I102
sg5
g6
sg7
I1101393
sg8
I117551
sg9
I800000
sg10
I378082
sg11
I71
sg12
g6
sg13
I495633
sg14
I27861
sg15
g6
sg16
I33
sg17
I494
sg18
I4
sg19
I00
sg20
g6
sg21
I-41250
sg22
g6
sg23
S'chip.cox@enron.com'
p130
sg25
I0
ssS'SHANKMAN JEFFREY A'
p131
(dp132
g3
I304110
sg4
I3221
sg5
g6
sg7
I3038702
sg8
I1441898
sg9
I2000000
sg10
I630137
sg11
I1730
sg12
g6
sg13
I2072035
sg14
I178979
sg15
g6
sg16
I2681
sg17
I1191
sg18
I83
sg19
I00
sg20
g6
sg21
g6
sg22
I554422
sg23
S'jeffrey.shankman@enron.com'
p133
sg25
I94
ssS'WHALLEY LAWRENCE G'
p134
(dp135
g3
I510364
sg4
I6019
sg5
g6
sg7
I4677574
sg8
I3282960
sg9
I3000000
sg10
I2796177
sg11
I3920
sg12
g6
sg13
I6079137
sg14
I57838
sg15
g6
sg16
I556
sg17
I301026
sg18
I24
sg19
I00
sg20
g6
sg21
g6
sg22
I808346
sg23
S'greg.whalley@enron.com'
p136
sg25
I186
ssS'SKILLING JEFFREY K'
p137
(dp138
g3
I1111258
sg4
I3627
sg5
g6
sg7
I8682716
sg8
I19250000
sg9
I5600000
sg10
I6843672
sg11
I2042
sg12
g6
sg13
I26093672
sg14
I29336
sg15
g6
sg16
I108
sg17
I22122
sg18
I30
sg19
I01
sg20
g6
sg21
g6
sg22
I1920000
sg23
S'jeff.skilling@enron.com'
p139
sg25
I88
ssS'BERGSIEKER RICHARD P'
p140
(dp141
g3
I187922
sg4
I383
sg5
g6
sg7
I618850
sg8
g6
sg9
I250000
sg10
I659249
sg11
I233
sg12
g6
sg13
I659249
sg14
I59175
sg15
g6
sg16
I59
sg17
I427316
sg18
I0
sg19
I00
sg20
g6
sg21
I-485813
sg22
I180250
sg23
S'rick.bergsieker@enron.com'
p142
sg25
I4
ssS'MCCONNELL MICHAEL S'
p143
(dp144
g3
I365038
sg4
I3329
sg5
g6
sg7
I2101364
sg8
I1623010
sg9
I1100000
sg10
I1478269
sg11
I2189
sg12
g6
sg13
I3101279
sg14
I81364
sg15
g6
sg16
I2742
sg17
I540
sg18
I194
sg19
I00
sg20
g6
sg21
g6
sg22
I554422
sg23
S'mike.mcconnell@enron.com'
p145
sg25
I92
ssS'DELAINEY DAVID W'
p146
(dp147
g3
I365163
sg4
I3093
sg5
g6
sg7
I4747979
sg8
I2291113
sg9
I3000000
sg10
I1323148
sg11
I2097
sg12
g6
sg13
I3614261
sg14
I86174
sg15
g6
sg16
I3069
sg17
I1661
sg18
I609
sg19
I01
sg20
g6
sg21
g6
sg22
I1294981
sg23
S'david.delainey@enron.com'
p148
sg25
I66
ssS'BIBI PHILIPPE A'
p149
(dp150
g3
I213625
sg4
I1607
sg5
g6
sg7
I2047593
sg8
I1465734
sg9
I1000000
sg10
I378082
sg11
I1336
sg12
g6
sg13
I1843816
sg14
I38559
sg15
g6
sg16
I40
sg17
I425688
sg18
I8
sg19
I00
sg20
g6
sg21
g6
sg22
I369721
sg23
S'philippe.bibi@enron.com'
p151
sg25
I23
ssS'FALLON JAMES B'
p152
(dp153
g3
I304588
sg4
I1755
sg5
g6
sg7
I3676340
sg8
I940257
sg9
I2500000
sg10
I1392142
sg11
I1604
sg12
g6
sg13
I2332399
sg14
I95924
sg15
g6
sg16
I75
sg17
I401481
sg18
I37
sg19
I00
sg20
g6
sg21
g6
sg22
I374347
sg23
S'jim.fallon@enron.com'
p154
sg25
I42
ssS'KOENIG MARK E'
p155
(dp156
g3
I309946
sg4
I2374
sg5
g6
sg7
I1587421
sg8
I671737
sg9
I700000
sg10
I1248318
sg11
I2271
sg12
g6
sg13
I1920055
sg14
I127017
sg15
g6
sg16
I61
sg17
I150458
sg18
I15
sg19
I01
sg20
g6
sg21
g6
sg22
I300000
sg23
S'mark.koenig@enron.com'
p157
sg25
I53
ssS'RIEKER PAULA H'
p158
(dp159
g3
I249201
sg4
I1328
sg5
I214678
sg7
I1099100
sg8
I1635238
sg9
I700000
sg10
I283649
sg11
I1258
sg12
g6
sg13
I1918887
sg14
I33271
sg15
g6
sg16
I82
sg17
I1950
sg18
I48
sg19
I01
sg20
g6
sg21
I-100000
sg22
g6
sg23
S'paula.rieker@enron.com'
p160
sg25
I35
ssS'IZZO LAWRENCE L'
p161
(dp162
g3
I85274
sg4
I496
sg5
g6
sg7
I1979596
sg8
I2165172
sg9
g6
sg10
I3654808
sg11
I437
sg12
g6
sg13
I5819980
sg14
I28093
sg15
g6
sg16
I19
sg17
I1553729
sg18
I5
sg19
I00
sg20
g6
sg21
g6
sg22
I312500
sg23
S'larry.izzo@enron.com'
p163
sg25
I28
ssS'UMANOFF ADAM S'
p164
(dp165
g3
I288589
sg4
I111
sg5
g6
sg7
I1130461
sg8
g6
sg9
I788750
sg10
g6
sg11
I41
sg12
g6
sg13
g6
sg14
I53122
sg15
g6
sg16
I18
sg17
g6
sg18
I0
sg19
I00
sg20
g6
sg21
g6
sg22
g6
sg23
S'adam.umanoff@enron.com'
p166
sg25
I12
ssS'LEFF DANIEL P'
p167
(dp168
g3
I273746
sg4
I2822
sg5
g6
sg7
I2664228
sg8
g6
sg9
I1000000
sg10
I360528
sg11
I2672
sg12
g6
sg13
I360528
sg14
g6
sg15
g6
sg16
I63
sg17
I3083
sg18
I14
sg19
I00
sg20
g6
sg21
g6
sg22
I1387399
sg23
S'dan.leff@enron.com'
p169
sg25
I67
ssS'TILNEY ELIZABETH A'
p170
(dp171
g3
I247338
sg4
I460
sg5
g6
sg7
I399393
sg8
I591250
sg9
I300000
sg10
I576792
sg11
I379
sg12
g6
sg13
I1168042
sg14
g6
sg15
g6
sg16
I19
sg17
I152055
sg18
I11
sg19
I00
sg20
g6
sg21
I-575000
sg22
I275000
sg23
S'elizabeth.tilney@enron.com'
p172
sg25
I10
ssS'MARTIN AMANDA K'
p173
(dp174
g3
I349487
sg4
I1522
sg5
I85430
sg7
I8407016
sg8
I2070306
sg9
g6
sg10
g6
sg11
I477
sg12
g6
sg13
I2070306
sg14
I8211
sg15
g6
sg16
I230
sg17
I2818454
sg18
I0
sg19
I00
sg20
g6
sg21
g6
sg22
I5145434
sg23
S'a..martin@enron.com'
p175
sg25
I8
ssS'KEAN STEVEN J'
p176
(dp177
g3
I404338
sg4
I12754
sg5
g6
sg7
I1747522
sg8
I2022048
sg9
I1000000
sg10
I4131594
sg11
I3639
sg12
g6
sg13
I6153642
sg14
I41953
sg15
g6
sg16
I6759
sg17
I1231
sg18
I387
sg19
I00
sg20
g6
sg21
g6
sg22
I300000
sg23
S'steven.kean@enron.com'
p178
sg25
I140
ssS'LAY KENNETH L'
p179
(dp180
g3
I1072321
sg4
I4273
sg5
I202911
sg7
I103559793
sg8
I34348384
sg9
I7000000
sg10
I14761694
sg11
I2411
sg12
g6
sg13
I49110078
sg14
I99832
sg15
I81525000
sg16
I36
sg17
I10359729
sg18
I16
sg19
I01
sg20
g6
sg21
I-300000
sg22
I3600000
sg23
S'kenneth.lay@enron.com'
p181
sg25
I123
ssS'BECK SALLY W'
p182
(dp183
g3
I231330
sg4
I7315
sg5
g6
sg7
I969068
sg8
g6
sg9
I700000
sg10
I126027
sg11
I2639
sg12
g6
sg13
I126027
sg14
I37172
sg15
g6
sg16
I4343
sg17
I566
sg18
I386
sg19
I00
sg20
g6
sg21
g6
sg22
g6
sg23
S'sally.beck@enron.com'
p184
sg25
I144
ssS'BUY RICHARD B'
p185
(dp186
g3
I330546
sg4
I3523
sg5
I649584
sg7
I2355702
sg8
I2542813
sg9
I900000
sg10
I901657
sg11
I2333
sg12
g6
sg13
I3444470
sg14
g6
sg15
g6
sg16
I1053
sg17
I400572
sg18
I71
sg19
I00
sg20
g6
sg21
I-694862
sg22
I769862
sg23
S'rick.buy@enron.com'
p187
sg25
I156
ssS'WASAFF GEORGE'
p188
(dp189
g3
I259996
sg4
I400
sg5
I831299
sg7
I1034395
sg8
I1668260
sg9
I325000
sg10
I388167
sg11
I337
sg12
g6
sg13
I2056427
sg14
g6
sg15
g6
sg16
I30
sg17
I1425
sg18
I7
sg19
I00
sg20
g6
sg21
I-583325
sg22
I200000
sg23
S'george.wasaff@enron.com'
p190
sg25
I22
ssS'OLSON CINDY K'
p191
(dp192
g3
I329078
sg4
I1184
sg5
I77716
sg7
I1321557
sg8
I1637034
sg9
I750000
sg10
I969729
sg11
I856
sg12
g6
sg13
I2606763
sg14
I63791
sg15
g6
sg16
I52
sg17
I972
sg18
I15
sg19
I00
sg20
g6
sg21
g6
sg22
I100000
sg23
S'cindy.olson@enron.com'
p193
sg25
I20
ssS'PICKERING MARK R'
p194
(dp195
g3
I655037
sg4
I898
sg5
g6
sg7
I1386690
sg8
I28798
sg9
I300000
sg10
g6
sg11
I728
sg12
g6
sg13
I28798
sg14
I31653
sg15
I400000
sg16
I67
sg17
g6
sg18
I0
sg19
I00
sg20
g6
sg21
g6
sg22
g6
sg23
S'mark.pickering@enron.com'
p196
sg25
I7
ssS'BELDEN TIMOTHY N'
p197
(dp198
g3
I213999
sg4
I7991
sg5
I2144013
sg7
I5501630
sg8
I953136
sg9
I5249999
sg10
I157569
sg11
I5521
sg12
g6
sg13
I1110705
sg14
I17355
sg15
g6
sg16
I484
sg17
I210698
sg18
I108
sg19
I01
sg20
g6
sg21
I-2334434
sg22
g6
sg23
S'tim.belden@enron.com'
p199
sg25
I228
ssS'ALLEN PHILLIP K'
p200
(dp201
g3
I201955
sg4
I2902
sg5
I2869717
sg7
I4484442
sg8
I1729541
sg9
I4175000
sg10
I126027
sg11
I1407
sg12
I-126027
sg13
I1729541
sg14
I13868
sg15
g6
sg16
I2195
sg17
I152
sg18
I65
sg19
I00
sg20
g6
sg21
I-3081055
sg22
I304805
sg23
S'phillip.allen@enron.com'
p202
sg25
I47
ssS'SHARP VICTORIA T'
p203
(dp204
g3
I248146
sg4
I3136
sg5
I187469
sg7
I1576511
sg8
I281073
sg9
I600000
sg10
I213063
sg11
I2477
sg12
g6
sg13
I494136
sg14
I116337
sg15
g6
sg16
I136
sg17
I2401
sg18
I6
sg19
I00
sg20
g6
sg21
g6
sg22
I422158
sg23
S'vicki.sharp@enron.com'
p205
sg25
I24
ssS'HICKERSON GARY J'
p206
(dp207
g3
I211788
sg4
I1320
sg5
g6
sg7
I2081796
sg8
g6
sg9
I1700000
sg10
I441096
sg11
I900
sg12
g6
sg13
I441096
sg14
I98849
sg15
g6
sg16
I27
sg17
I1936
sg18
I1
sg19
I00
sg20
g6
sg21
g6
sg22
I69223
sg23
S'gary.hickerson@enron.com'
p208
sg25
I40
ssS'GLISAN JR BEN F'
p209
(dp210
g3
I274975
sg4
I873
sg5
g6
sg7
I1272284
sg8
I384728
sg9
I600000
sg10
I393818
sg11
I874
sg12
g6
sg13
I778546
sg14
I125978
sg15
g6
sg16
I16
sg17
I200308
sg18
I6
sg19
I01
sg20
g6
sg21
g6
sg22
I71023
sg23
S'ben.glisan@enron.com'
p211
sg25
I52
ssS'TAYLOR MITCHELL S'
p212
(dp213
g3
I265214
sg4
I533
sg5
I227449
sg7
I1092663
sg8
I3181250
sg9
I600000
sg10
I563798
sg11
I300
sg12
g6
sg13
I3745048
sg14
g6
sg15
g6
sg16
I29
sg17
g6
sg18
I0
sg19
I00
sg20
g6
sg21
g6
sg22
g6
sg23
S'mitchell.taylor@enron.com'
p214
sg25
I0
ssS'DONAHUE JR JEFFREY M'
p215
(dp216
g3
I278601
sg4
I865
sg5
g6
sg7
I875760
sg8
I765920
sg9
I800000
sg10
I315068
sg11
I772
sg12
g6
sg13
I1080988
sg14
I96268
sg15
g6
sg16
I22
sg17
I891
sg18
I11
sg19
I00
sg20
g6
sg21
I-300000
sg22
g6
sg23
S'jeff.donahue@enron.com'
p217
sg25
I188
ssS'MCCLELLAN GEORGE'
p218
(dp219
g3
I263413
sg4
I1744
sg5
g6
sg7
I1318763
sg8
I506765
sg9
I900000
sg10
I441096
sg11
I1469
sg12
g6
sg13
I947861
sg14
I228763
sg15
g6
sg16
I49
sg17
I51587
sg18
I0
sg19
I00
sg20
g6
sg21
I-125000
sg22
g6
sg23
S'george.mcclellan@enron.com'
p220
sg25
I52
ssS'CARTER REBECCA C'
p221
(dp222
g3
I261809
sg4
I312
sg5
g6
sg7
I477557
sg8
g6
sg9
I300000
sg10
I307301
sg11
I196
sg12
I-307301
sg13
g6
sg14
g6
sg15
g6
sg16
I15
sg17
I540
sg18
I7
sg19
I00
sg20
g6
sg21
I-159792
sg22
I75000
sg23
S'rebecca.carter@enron.com'
p223
sg25
I29
ss.