(dp0
S'REYNOLDS LAWRENCE'
p1
(dp2
S'salary'
p3
I76399
sS'to_messages'
p4
S'NaN'
p5
sS'deferral_payments'
p6
I51365
sS'total_payments'
p7
I394475
sS'exercised_stock_options'
p8
I4160672
sS'bonus'
p9
I100000
sS'restricted_stock'
p10
I201483
sS'shared_receipt_with_poi'
p11
g5
sS'restricted_stock_deferred'
p12
I-140264
sS'total_stock_value'
p13
I4221891
sS'expenses'
p14
I8409
sS'loan_advances'
p15
g5
sS'from_messages'
p16
g5
sS'other'
p17
I202052
sS'from_this_person_to_poi'
p18
g5
sS'poi'
p19
I00
sS'director_fees'
p20
g5
sS'deferred_income'
p21
I-200000
sS'long_term_incentive'
p22
I156250
sS'email_address'
p23
g5
sS'from_poi_to_this_person'
p24
g5
ssS'HAEDICKE MARK E'
p25
(dp26
g3
I374125
sg4
I4009
sg6
I2157527
sg7
I3859065
sg8
I608750
sg9
I1150000
sg10
I524169
sg11
I1847
sg12
I-329825
sg13
I803094
sg14
I76169
sg15
g5
sg16
I1941
sg17
I52382
sg18
I61
sg19
I00
sg20
g5
sg21
I-934484
sg22
I983346
sg23
S'mark.haedicke@enron.com'
p27
sg24
I180
ssS'ELLIOTT STEVEN'
p28
(dp29
g3
I170941
sg4
g5
sg6
g5
sg7
I211725
sg8
I4890344
sg9
I350000
sg10
I1788391
sg11
g5
sg12
g5
sg13
I6678735
sg14
I78552
sg15
g5
sg16
g5
sg17
I12961
sg18
g5
sg19
I00
sg20
g5
sg21
I-400729
sg22
g5
sg23
S'steven.elliott@enron.com'
p30
sg24
g5
ssS'HANNON KEVIN P'
p31
(dp32
g3
I243293
sg4
I1045
sg6
g5
sg7
I288682
sg8
I5538001
sg9
I1500000
sg10
I853064
sg11
I1035
sg12
g5
sg13
I6391065
sg14
I34039
sg15
g5
sg16
I32
sg17
I11350
sg18
I21
sg19
I01
sg20
g5
sg21
I-3117011
sg22
I1617011
sg23
S'kevin.hannon@enron.com'
p33
sg24
I32
ssS'RICE KENNETH D'
p34
(dp35
g3
I420636
sg4
I905
sg6
g5
sg7
I505050
sg8
I19794175
sg9
I1750000
sg10
I2748364
sg11
I864
sg12
g5
sg13
I22542539
sg14
I46950
sg15
g5
sg16
I18
sg17
I174839
sg18
I4
sg19
I01
sg20
g5
sg21
I-3504386
sg22
I1617011
sg23
S'ken.rice@enron.com'
p36
sg24
I42
ssS'BELDEN TIMOTHY N'
p37
(dp38
g3
I213999
sg4
I7991
sg6
I2144013
sg7
I5501630
sg8
I953136
sg9
I5249999
sg10
I157569
sg11
I5521
sg12
g5
sg13
I1110705
sg14
I17355
sg15
g5
sg16
I484
sg17
I210698
sg18
I108
sg19
I01
sg20
g5
sg21
I-2334434
sg22
g5
sg23
S'tim.belden@enron.com'
p39
sg24
I228
ssS'BAXTER JOHN C'
p40
(dp41
g3
I267102
sg4
g5
sg6
I1295738
sg7
I5634343
sg8
I6680544
sg9
I1200000
sg10
I3942714
sg11
g5
sg12
g5
sg13
I10623258
sg14
I11200
sg15
g5
sg16
g5
sg17
I2660303
sg18
g5
sg19
I00
sg20
g5
sg21
I-1386055
sg22
I1586055
sg23
g5
sg24
g5
ssS'PIPER GREGORY F'
p42
(dp43
g3
I197091
sg4
I1238
sg6
I1130036
sg7
I1737629
sg8
I880290
sg9
I400000
sg10
I409554
sg11
I742
sg12
I-409554
sg13
I880290
sg14
I43057
sg15
g5
sg16
I222
sg17
I778
sg18
I48
sg19
I00
sg20
g5
sg21
I-33333
sg22
g5
sg23
S'greg.piper@enron.com'
p44
sg24
I61
ssS'DETMERING TIMOTHY J'
p45
(dp46
g3
I210500
sg4
g5
sg6
I875307
sg7
I1204583
sg8
I2027865
sg9
I425000
sg10
I315068
sg11
g5
sg12
I-315068
sg13
I2027865
sg14
I52255
sg15
g5
sg16
g5
sg17
I1105
sg18
g5
sg19
I00
sg20
g5
sg21
I-775241
sg22
I415657
sg23
S'timothy.detmering@enron.com'
p47
sg24
g5
ssS'BANNANTINE JAMES M'
p48
(dp49
g3
I477
sg4
I566
sg6
g5
sg7
I916197
sg8
I4046157
sg9
g5
sg10
I1757552
sg11
I465
sg12
I-560222
sg13
I5243487
sg14
I56301
sg15
g5
sg16
I29
sg17
I864523
sg18
I0
sg19
I00
sg20
g5
sg21
I-5104
sg22
g5
sg23
S'james.bannantine@enron.com'
p50
sg24
I39
ssS'DUNCAN JOHN H'
p51
(dp52
g3
g5
sg4
g5
sg6
g5
sg7
I77492
sg8
I371750
sg9
g5
sg10
g5
sg11
g5
sg12
g5
sg13
I371750
sg14
g5
sg15
g5
sg16
g5
sg17
g5
sg18
g5
sg19
I00
sg20
I102492
sg21
I-25000
sg22
g5
sg23
g5
sg24
g5
ssS'MULLER MARK S'
p53
(dp54
g3
I251654
sg4
I136
sg6
I842924
sg7
I3202070
sg8
I1056320
sg9
I1100000
sg10
I360528
sg11
I114
sg12
g5
sg13
I1416848
sg14
g5
sg15
g5
sg16
I16
sg17
I947
sg18
I0
sg19
I00
sg20
g5
sg21
I-719000
sg22
I1725545
sg23
S's..muller@enron.com'
p55
sg24
I12
ssS'SHELBY REX'
p56
(dp57
g3
I211844
sg4
I225
sg6
g5
sg7
I2003885
sg8
I1624396
sg9
I200000
sg10
I869220
sg11
I91
sg12
g5
sg13
I2493616
sg14
I22884
sg15
g5
sg16
I39
sg17
I1573324
sg18
I14
sg19
I01
sg20
g5
sg21
I-4167
sg22
g5
sg23
S'rex.shelby@enron.com'
p58
sg24
I13
ssS'DERRICK JR. JAMES V'
p59
(dp60
g3
I492375
sg4
I2181
sg6
g5
sg7
I550981
sg8
I8831913
sg9
I800000
sg10
I1787380
sg11
I1401
sg12
I-1787380
sg13
I8831913
sg14
I51124
sg15
g5
sg16
I909
sg17
I7482
sg18
I20
sg19
I00
sg20
g5
sg21
I-1284000
sg22
I484000
sg23
S'james.derrick@enron.com'
p61
sg24
I64
ssS'FREVERT MARK A'
p62
(dp63
g3
I1060932
sg4
I3275
sg6
I6426990
sg7
I17252530
sg8
I10433518
sg9
I2000000
sg10
I4188667
sg11
I2979
sg12
g5
sg13
I14622185
sg14
I86987
sg15
I2000000
sg16
I21
sg17
I7427621
sg18
I6
sg19
I00
sg20
g5
sg21
I-3367011
sg22
I1617011
sg23
S'mark.frevert@enron.com'
p64
sg24
I242
ssS'LEMAISTRE CHARLES'
p65
(dp66
g3
g5
sg4
g5
sg6
g5
sg7
I87492
sg8
I412878
sg9
g5
sg10
g5
sg11
g5
sg12
g5
sg13
I412878
sg14
g5
sg15
g5
sg16
g5
sg17
g5
sg18
g5
sg19
I00
sg20
I112492
sg21
I-25000
sg22
g5
sg23
g5
sg24
g5
ssS'COX DAVID'
p67
(dp68
g3
I314288
sg4
I102
sg6
g5
sg7
I1101393
sg8
I117551
sg9
I800000
sg10
I378082
sg11
I71
sg12
g5
sg13
I495633
sg14
I27861
sg15
g5
sg16
I33
sg17
I494
sg18
I4
sg19
I00
sg20
g5
sg21
I-41250
sg22
g5
sg23
S'chip.cox@enron.com'
p69
sg24
I0
ssS'RIEKER PAULA H'
p70
(dp71
g3
I249201
sg4
I1328
sg6
I214678
sg7
I1099100
sg8
I1635238
sg9
I700000
sg10
I283649
sg11
I1258
sg12
g5
sg13
I1918887
sg14
I33271
sg15
g5
sg16
I82
sg17
I1950
sg18
I48
sg19
I01
sg20
g5
sg21
I-100000
sg22
g5
sg23
S'paula.rieker@enron.com'
p72
sg24
I35
ssS'TILNEY ELIZABETH A'
p73
(dp74
g3
I247338
sg4
I460
sg6
g5
sg7
I399393
sg8
I591250
sg9
I300000
sg10
I576792
sg11
I379
sg12
g5
sg13
I1168042
sg14
g5
sg15
g5
sg16
I19
sg17
I152055
sg18
I11
sg19
I00
sg20
g5
sg21
I-575000
sg22
I275000
sg23
S'elizabeth.tilney@enron.com'
p75
sg24
I10
ssS'LAY KENNETH L'
p76
(dp77
g3
I1072321
sg4
I4273
sg6
I202911
sg7
I103559793
sg8
I34348384
sg9
I7000000
sg10
I14761694
sg11
I2411
sg12
g5
sg13
I49110078
sg14
I99832
sg15
I81525000
sg16
I36
sg17
I10359729
sg18
I16
sg19
I01
sg20
g5
sg21
I-300000
sg22
I3600000
sg23
S'kenneth.lay@enron.com'
p78
sg24
I123
ssS'BUY RICHARD B'
p79
(dp80
g3
I330546
sg4
I3523
sg6
I649584
sg7
I2355702
sg8
I2542813
sg9
I900000
sg10
I901657
sg11
I2333
sg12
g5
sg13
I3444470
sg14
g5
sg15
g5
sg16
I1053
sg17
I400572
sg18
I71
sg19
I00
sg20
g5
sg21
I-694862
sg22
I769862
sg23
S'rick.buy@enron.com'
p81
sg24
I156
ssS'WASAFF GEORGE'
p82
(dp83
g3
I259996
sg4
I400
sg6
I831299
sg7
I1034395
sg8
I1668260
sg9
I325000
sg10
I388167
sg11
I337
sg12
g5
sg13
I2056427
sg14
g5
sg15
g5
sg16
I30
sg17
I1425
sg18
I7
sg19
I00
sg20
g5
sg21
I-583325
sg22
I200000
sg23
S'george.wasaff@enron.com'
p84
sg24
I22
ssS'ALLEN PHILLIP K'
p85
(dp86
g3
I201955
sg4
I2902
sg6
I2869717
sg7
I4484442
sg8
I1729541
sg9
I4175000
sg10
I126027
sg11
I1407
sg12
I-126027
sg13
I1729541
sg14
I13868
sg15
g5
sg16
I2195
sg17
I152
sg18
I65
sg19
I00
sg20
g5
sg21
I-3081055
sg22
I304805
sg23
S'phillip.allen@enron.com'
p87
sg24
I47
ssS'JAEDICKE ROBERT'
p88
(dp89
g3
g5
sg4
g5
sg6
g5
sg7
I83750
sg8
I431750
sg9
g5
sg10
I44093
sg11
g5
sg12
I-44093
sg13
I431750
sg14
g5
sg15
g5
sg16
g5
sg17
g5
sg18
g5
sg19
I00
sg20
I108750
sg21
I-25000
sg22
g5
sg23
g5
sg24
g5
ssS'GAHN ROBERT S'
p90
(dp91
g3
I192008
sg4
g5
sg6
I73122
sg7
I900585
sg8
I83237
sg9
I509870
sg10
I235370
sg11
g5
sg12
g5
sg13
I318607
sg14
I50080
sg15
g5
sg16
g5
sg17
I76547
sg18
g5
sg19
I00
sg20
g5
sg21
I-1042
sg22
g5
sg23
g5
sg24
g5
ssS'HERMANN ROBERT J'
p92
(dp93
g3
I262663
sg4
g5
sg6
g5
sg7
I1297461
sg8
I187500
sg9
I700000
sg10
I480632
sg11
g5
sg12
g5
sg13
I668132
sg14
I48357
sg15
g5
sg16
g5
sg17
I416441
sg18
g5
sg19
I00
sg20
g5
sg21
I-280000
sg22
I150000
sg23
S'robert.hermann@enron.com'
p94
sg24
g5
ssS'DONAHUE JR JEFFREY M'
p95
(dp96
g3
I278601
sg4
I865
sg6
g5
sg7
I875760
sg8
I765920
sg9
I800000
sg10
I315068
sg11
I772
sg12
g5
sg13
I1080988
sg14
I96268
sg15
g5
sg16
I22
sg17
I891
sg18
I11
sg19
I00
sg20
g5
sg21
I-300000
sg22
g5
sg23
S'jeff.donahue@enron.com'
p97
sg24
I188
ssS'MCCLELLAN GEORGE'
p98
(dp99
g3
I263413
sg4
I1744
sg6
g5
sg7
I1318763
sg8
I506765
sg9
I900000
sg10
I441096
sg11
I1469
sg12
g5
sg13
I947861
sg14
I228763
sg15
g5
sg16
I49
sg17
I51587
sg18
I0
sg19
I00
sg20
g5
sg21
I-125000
sg22
g5
sg23
S'george.mcclellan@enron.com'
p100
sg24
I52
ss.