(lp0
S'poi'
p1
aS'deferred_income'
p2
aS'exercised_stock_options'
p3
aS'long_term_incentive'
p4
aS'from_this_person_to_poi'
p5
aS'from_poi_to_this_person'
p6
aS'salary'
p7
aS'restricted_stock'
p8
aS'bonus'
p9
a.